; Function Attrs: mustprogress uwtable
define hidden void @_ZN3sls9bv_plugin10initializeEv(ptr noundef nonnull align 8 dereferenceable(1049) %0) unnamed_addr #3 align 2 {
  %2 = getelementptr inbounds nuw i8, ptr %0, i64 1048
  %3 = load i8, ptr %2, align 8, !tbaa !20, !range !131, !noundef !132
  %4 = trunc nuw i8 %3 to i1
  br i1 %4, label %7, label %5

5:                                                ; preds = %1
  %6 = getelementptr inbounds nuw i8, ptr %0, i64 568
  tail call void @_ZN3sls8bv_fixed4initEv(ptr noundef nonnull align 8 dereferenceable(40) %6)
  store i8 1, ptr %2, align 8, !tbaa !20
  br label %7

7:                                                ; preds = %5, %1
  ret void
}